target datalayout = "e-m:e-p270:32:32-p271:32:32-p272:64:64-i64:64-i128:128-f80:128-n8:16:32:64-S128"
target triple = "x86_64-pc-linux-gnu"

%struct.siv128_context = type { %union.siv_block_u, %union.siv_block_u, ptr, ptr, ptr, i32, i32 }
%union.siv_block_u = type { [2 x i64] }

; Function Attrs: inlinehint nounwind uwtable
define internal i32 @siv128_do_encrypt(ptr noundef %0, ptr noundef %1, ptr noundef %2, i64 noundef %3, ptr noundef %4) #5 {
  %6 = alloca i32, align 4
  %7 = alloca ptr, align 8
  %8 = alloca ptr, align 8
  %9 = alloca ptr, align 8
  %10 = alloca i64, align 8
  %11 = alloca ptr, align 8
  %12 = alloca i32, align 4
  %13 = alloca i32, align 4
  store ptr %0, ptr %7, align 8, !tbaa !33
  store ptr %1, ptr %8, align 8, !tbaa !3
  store ptr %2, ptr %9, align 8, !tbaa !3
  store i64 %3, ptr %10, align 8, !tbaa !16
  store ptr %4, ptr %11, align 8, !tbaa !30
  call void @llvm.lifetime.start.p0(i64 4, ptr %12) #6
  %14 = load i64, ptr %10, align 8, !tbaa !16
  %15 = trunc i64 %14 to i32
  store i32 %15, ptr %12, align 4, !tbaa !8
  %16 = load ptr, ptr %7, align 8, !tbaa !33
  %17 = load ptr, ptr %11, align 8, !tbaa !30
  %18 = getelementptr inbounds [16 x i8], ptr %17, i64 0, i64 0
  %19 = call i32 @EVP_CipherInit_ex(ptr noundef %16, ptr noundef null, ptr noundef null, ptr noundef null, ptr noundef %18, i32 noundef 1)
  %20 = icmp ne i32 %19, 0
  br i1 %20, label %22, label %21

21:                                               ; preds = %5
  store i32 0, ptr %6, align 4
  store i32 1, ptr %13, align 4
  br label %28

22:                                               ; preds = %5
  %23 = load ptr, ptr %7, align 8, !tbaa !33
  %24 = load ptr, ptr %8, align 8, !tbaa !3
  %25 = load ptr, ptr %9, align 8, !tbaa !3
  %26 = load i32, ptr %12, align 4, !tbaa !8
  %27 = call i32 @EVP_EncryptUpdate(ptr noundef %23, ptr noundef %24, ptr noundef %12, ptr noundef %25, i32 noundef %26)
  store i32 %27, ptr %6, align 4
  store i32 1, ptr %13, align 4
  br label %28

28:                                               ; preds = %22, %21
  call void @llvm.lifetime.end.p0(i64 4, ptr %12) #6
  %29 = load i32, ptr %6, align 4
  ret i32 %29
}

; Function Attrs: nounwind uwtable
define i32 @ossl_siv128_encrypt(ptr noundef %0, ptr noundef %1, ptr noundef %2, i64 noundef %3) #0 {
  %5 = alloca i32, align 4
  %6 = alloca ptr, align 8
  %7 = alloca ptr, align 8
  %8 = alloca ptr, align 8
  %9 = alloca i64, align 8
  %10 = alloca %union.siv_block_u, align 8
  %11 = alloca i32, align 4
  store ptr %0, ptr %6, align 8, !tbaa !14
  store ptr %1, ptr %7, align 8, !tbaa !3
  store ptr %2, ptr %8, align 8, !tbaa !3
  store i64 %3, ptr %9, align 8, !tbaa !16
  call void @llvm.lifetime.start.p0(i64 16, ptr %10) #6
  %12 = load ptr, ptr %6, align 8, !tbaa !14
  %13 = getelementptr inbounds nuw %struct.siv128_context, ptr %12, i32 0, i32 6
  %14 = load i32, ptr %13, align 4, !tbaa !29
  %15 = icmp eq i32 %14, 0
  br i1 %15, label %16, label %17

16:                                               ; preds = %4
  store i32 0, ptr %5, align 4
  store i32 1, ptr %11, align 4
  br label %56

17:                                               ; preds = %4
  %18 = load ptr, ptr %6, align 8, !tbaa !14
  %19 = getelementptr inbounds nuw %struct.siv128_context, ptr %18, i32 0, i32 6
  %20 = load i32, ptr %19, align 4, !tbaa !29
  %21 = add nsw i32 %20, -1
  store i32 %21, ptr %19, align 4, !tbaa !29
  %22 = load ptr, ptr %6, align 8, !tbaa !14
  %23 = load ptr, ptr %7, align 8, !tbaa !3
  %24 = load i64, ptr %9, align 8, !tbaa !16
  %25 = call i32 @siv128_do_s2v_p(ptr noundef %22, ptr noundef %10, ptr noundef %23, i64 noundef %24)
  %26 = icmp ne i32 %25, 0
  br i1 %26, label %28, label %27

27:                                               ; preds = %17
  store i32 0, ptr %5, align 4
  store i32 1, ptr %11, align 4
  br label %56

28:                                               ; preds = %17
  %29 = load ptr, ptr %6, align 8, !tbaa !14
  %30 = getelementptr inbounds nuw %struct.siv128_context, ptr %29, i32 0, i32 1
  %31 = getelementptr inbounds [16 x i8], ptr %30, i64 0, i64 0
  call void @llvm.memcpy.p0.p0.i64(ptr align 8 %31, ptr align 8 %10, i64 16, i1 false)
  %32 = getelementptr inbounds [16 x i8], ptr %10, i64 0, i64 8
  %33 = load i8, ptr %32, align 8, !tbaa !32
  %34 = zext i8 %33 to i32
  %35 = and i32 %34, 127
  %36 = trunc i32 %35 to i8
  store i8 %36, ptr %32, align 8, !tbaa !32
  %37 = getelementptr inbounds [16 x i8], ptr %10, i64 0, i64 12
  %38 = load i8, ptr %37, align 4, !tbaa !32
  %39 = zext i8 %38 to i32
  %40 = and i32 %39, 127
  %41 = trunc i32 %40 to i8
  store i8 %41, ptr %37, align 4, !tbaa !32
  %42 = load ptr, ptr %6, align 8, !tbaa !14
  %43 = getelementptr inbounds nuw %struct.siv128_context, ptr %42, i32 0, i32 2
  %44 = load ptr, ptr %43, align 8, !tbaa !20
  %45 = load ptr, ptr %8, align 8, !tbaa !3
  %46 = load ptr, ptr %7, align 8, !tbaa !3
  %47 = load i64, ptr %9, align 8, !tbaa !16
  %48 = call i32 @siv128_do_encrypt(ptr noundef %44, ptr noundef %45, ptr noundef %46, i64 noundef %47, ptr noundef %10)
  %49 = icmp ne i32 %48, 0
  br i1 %49, label %51, label %50

50:                                               ; preds = %28
  store i32 0, ptr %5, align 4
  store i32 1, ptr %11, align 4
  br label %56

51:                                               ; preds = %28
  %52 = load ptr, ptr %6, align 8, !tbaa !14
  %53 = getelementptr inbounds nuw %struct.siv128_context, ptr %52, i32 0, i32 5
  store i32 0, ptr %53, align 8, !tbaa !28
  %54 = load i64, ptr %9, align 8, !tbaa !16
  %55 = trunc i64 %54 to i32
  store i32 %55, ptr %5, align 4
  store i32 1, ptr %11, align 4
  br label %56

56:                                               ; preds = %51, %50, %27, %16
  call void @llvm.lifetime.end.p0(i64 16, ptr %10) #6
  %57 = load i32, ptr %5, align 4
  ret i32 %57
}