; Function Attrs: nounwind uwtable
define noundef i32 @ossl_siv128_encrypt(ptr noundef captures(none) %0, ptr noundef %1, ptr noundef %2, i64 noundef %3) local_unnamed_addr #0 {
  %5 = alloca i32, align 4
  %6 = alloca %union.siv_block_u, align 8
  call void @llvm.lifetime.start.p0(i64 16, ptr nonnull %6) #10
  %7 = getelementptr inbounds nuw i8, ptr %0, i64 60
  %8 = load i32, ptr %7, align 4, !tbaa !22
  %9 = icmp eq i32 %8, 0
  br i1 %9, label %28, label %10

10:                                               ; preds = %4
  %11 = add nsw i32 %8, -1
  store i32 %11, ptr %7, align 4, !tbaa !22
  %12 = call fastcc i32 @siv128_do_s2v_p(ptr noundef nonnull %0, ptr noundef %6, ptr noundef %1, i64 noundef %3)
  %.not = icmp eq i32 %12, 0
  br i1 %.not, label %28, label %13

13:                                               ; preds = %10
  %14 = getelementptr inbounds nuw i8, ptr %0, i64 16
  call void @llvm.memcpy.p0.p0.i64(ptr noundef nonnull align 8 dereferenceable(16) %14, ptr noundef nonnull align 8 dereferenceable(16) %6, i64 16, i1 false)
  %15 = getelementptr inbounds nuw i8, ptr %6, i64 8
  %16 = load i8, ptr %15, align 8, !tbaa !23
  %17 = and i8 %16, 127
  store i8 %17, ptr %15, align 8, !tbaa !23
  %18 = getelementptr inbounds nuw i8, ptr %6, i64 12
  %19 = load i8, ptr %18, align 4, !tbaa !23
  %20 = and i8 %19, 127
  store i8 %20, ptr %18, align 4, !tbaa !23
  %21 = getelementptr inbounds nuw i8, ptr %0, i64 32
  %22 = load ptr, ptr %21, align 8, !tbaa !7
  call void @llvm.lifetime.start.p0(i64 4, ptr nonnull %5) #10
  %23 = trunc i64 %3 to i32
  store i32 %23, ptr %5, align 4, !tbaa !19
  %24 = call i32 @EVP_CipherInit_ex(ptr noundef %22, ptr noundef null, ptr noundef null, ptr noundef null, ptr noundef nonnull %6, i32 noundef 1) #10
  %.not.i = icmp eq i32 %24, 0
  br i1 %.not.i, label %siv128_do_encrypt.exit.thread, label %siv128_do_encrypt.exit

siv128_do_encrypt.exit.thread:                    ; preds = %13
  call void @llvm.lifetime.end.p0(i64 4, ptr nonnull %5) #10
  br label %28

siv128_do_encrypt.exit:                           ; preds = %13
  %25 = call i32 @EVP_EncryptUpdate(ptr noundef %22, ptr noundef %2, ptr noundef nonnull %5, ptr noundef %1, i32 noundef %23) #10
  call void @llvm.lifetime.end.p0(i64 4, ptr nonnull %5) #10
  %.not13 = icmp eq i32 %25, 0
  br i1 %.not13, label %28, label %26

26:                                               ; preds = %siv128_do_encrypt.exit
  %27 = getelementptr inbounds nuw i8, ptr %0, i64 56
  store i32 0, ptr %27, align 8, !tbaa !21
  br label %28

28:                                               ; preds = %siv128_do_encrypt.exit.thread, %siv128_do_encrypt.exit, %10, %4, %26
  %.0 = phi i32 [ %23, %26 ], [ 0, %4 ], [ 0, %10 ], [ 0, %siv128_do_encrypt.exit ], [ 0, %siv128_do_encrypt.exit.thread ]
  call void @llvm.lifetime.end.p0(i64 16, ptr nonnull %6) #10
  ret i32 %.0
}